target datalayout = "e-m:e-p270:32:32-p271:32:32-p272:64:64-i64:64-i128:128-f80:128-n8:16:32:64-S128"
target triple = "x86_64-pc-linux-gnu"

%"class.zxing::Ref.2" = type { ptr }
%"class.zxing::Counted.base" = type <{ ptr, i32 }>
%"class.zxing::Ref.0" = type { ptr }
%"class.zxing::ArrayRef.1" = type { %"class.zxing::Counted.base", ptr }
%"class.zxing::Array" = type { %"class.zxing::Counted.base", %"class.std::vector" }
%"class.std::vector" = type { %"struct.std::_Vector_base" }
%"struct.std::_Vector_base" = type { %"struct.std::_Vector_base<int, std::allocator<int>>::_Vector_impl" }
%"struct.std::_Vector_base<int, std::allocator<int>>::_Vector_impl" = type { %"struct.std::_Vector_base<int, std::allocator<int>>::_Vector_impl_data" }
%"struct.std::_Vector_base<int, std::allocator<int>>::_Vector_impl_data" = type { ptr, ptr, ptr }
%"class.zxing::BitMatrix" = type <{ %"class.zxing::Counted.base", i32, i32, i32, %"class.std::vector.9", %"class.std::vector.9", %"class.std::vector.14", %"class.std::vector.9", %"class.std::vector.9", %"class.std::vector.9", %"class.std::vector.9", %"class.std::vector.14", %"class.std::vector.9", %"class.std::vector.9", %"class.zxing::ArrayRef.18", %"class.zxing::ArrayRef.1", i8, i8, [6 x i8] }>
%"class.std::vector.14" = type { %"struct.std::_Bvector_base" }
%"struct.std::_Bvector_base" = type { %"struct.std::_Bvector_base<std::allocator<bool>>::_Bvector_impl" }
%"struct.std::_Bvector_base<std::allocator<bool>>::_Bvector_impl" = type { %"struct.std::_Bvector_base<std::allocator<bool>>::_Bvector_impl_data" }
%"struct.std::_Bvector_base<std::allocator<bool>>::_Bvector_impl_data" = type { %"struct.std::_Bit_iterator", %"struct.std::_Bit_iterator", ptr }
%"struct.std::_Bit_iterator" = type { %"struct.std::_Bit_iterator_base.base", [4 x i8] }
%"struct.std::_Bit_iterator_base.base" = type <{ ptr, i32 }>
%"class.std::vector.9" = type { %"struct.std::_Vector_base.10" }
%"struct.std::_Vector_base.10" = type { %"struct.std::_Vector_base<short, std::allocator<short>>::_Vector_impl" }
%"struct.std::_Vector_base<short, std::allocator<short>>::_Vector_impl" = type { %"struct.std::_Vector_base<short, std::allocator<short>>::_Vector_impl_data" }
%"struct.std::_Vector_base<short, std::allocator<short>>::_Vector_impl_data" = type { ptr, ptr, ptr }
%"class.zxing::ArrayRef.18" = type { %"class.zxing::Counted.base", ptr }
%"class.zxing::Array.19" = type { %"class.zxing::Counted.base", %"class.std::vector.20" }
%"class.std::vector.20" = type { %"struct.std::_Vector_base.21" }
%"struct.std::_Vector_base.21" = type { %"struct.std::_Vector_base<unsigned char, std::allocator<unsigned char>>::_Vector_impl" }
%"struct.std::_Vector_base<unsigned char, std::allocator<unsigned char>>::_Vector_impl" = type { %"struct.std::_Vector_base<unsigned char, std::allocator<unsigned char>>::_Vector_impl_data" }
%"struct.std::_Vector_base<unsigned char, std::allocator<unsigned char>>::_Vector_impl_data" = type { ptr, ptr, ptr }

; Function Attrs: mustprogress nounwind uwtable
define linkonce_odr hidden noundef nonnull align 1 dereferenceable(1) ptr @_ZNSt6vectorIhSaIhEEixEm(ptr noundef nonnull align 8 dereferenceable(24) %0, i64 noundef %1) #2 comdat align 2 {
  %3 = alloca ptr, align 8
  %4 = alloca i64, align 8
  store ptr %0, ptr %3, align 8, !tbaa !121
  store i64 %1, ptr %4, align 8, !tbaa !123
  %5 = load ptr, ptr %3, align 8
  %6 = getelementptr inbounds nuw %"struct.std::_Vector_base.21", ptr %5, i32 0, i32 0
  %7 = getelementptr inbounds nuw %"struct.std::_Vector_base<unsigned char, std::allocator<unsigned char>>::_Vector_impl_data", ptr %6, i32 0, i32 0
  %8 = load ptr, ptr %7, align 8, !tbaa !125
  %9 = load i64, ptr %4, align 8, !tbaa !123
  %10 = getelementptr inbounds nuw i8, ptr %8, i64 %9
  ret ptr %10
}

; Function Attrs: mustprogress nounwind uwtable
define linkonce_odr hidden noundef nonnull align 4 dereferenceable(4) ptr @_ZNSt6vectorIiSaIiEEixEm(ptr noundef nonnull align 8 dereferenceable(24) %0, i64 noundef %1) #2 comdat align 2 {
  %3 = alloca ptr, align 8
  %4 = alloca i64, align 8
  store ptr %0, ptr %3, align 8, !tbaa !127
  store i64 %1, ptr %4, align 8, !tbaa !123
  %5 = load ptr, ptr %3, align 8
  %6 = getelementptr inbounds nuw %"struct.std::_Vector_base", ptr %5, i32 0, i32 0
  %7 = getelementptr inbounds nuw %"struct.std::_Vector_base<int, std::allocator<int>>::_Vector_impl_data", ptr %6, i32 0, i32 0
  %8 = load ptr, ptr %7, align 8, !tbaa !129
  %9 = load i64, ptr %4, align 8, !tbaa !123
  %10 = getelementptr inbounds nuw i32, ptr %8, i64 %9
  ret ptr %10
}

; Function Attrs: mustprogress nounwind uwtable
define linkonce_odr hidden noundef nonnull align 1 dereferenceable(1) ptr @_ZN5zxing5ArrayIhEixEi(ptr noundef nonnull align 8 dereferenceable(40) %0, i32 noundef %1) #2 comdat align 2 {
  %3 = alloca ptr, align 8
  %4 = alloca i32, align 4
  store ptr %0, ptr %3, align 8, !tbaa !120
  store i32 %1, ptr %4, align 4, !tbaa !21
  %5 = load ptr, ptr %3, align 8
  %6 = getelementptr inbounds nuw %"class.zxing::Array.19", ptr %5, i32 0, i32 1
  %7 = load i32, ptr %4, align 4, !tbaa !21
  %8 = sext i32 %7 to i64
  %9 = call noundef nonnull align 1 dereferenceable(1) ptr @_ZNSt6vectorIhSaIhEEixEm(ptr noundef nonnull align 8 dereferenceable(24) %6, i64 noundef %8) #12
  ret ptr %9
}

; Function Attrs: mustprogress nounwind uwtable
define linkonce_odr hidden noundef nonnull align 4 dereferenceable(4) ptr @_ZN5zxing5ArrayIiEixEi(ptr noundef nonnull align 8 dereferenceable(40) %0, i32 noundef %1) #2 comdat align 2 {
  %3 = alloca ptr, align 8
  %4 = alloca i32, align 4
  store ptr %0, ptr %3, align 8, !tbaa !77
  store i32 %1, ptr %4, align 4, !tbaa !21
  %5 = load ptr, ptr %3, align 8
  %6 = getelementptr inbounds nuw %"class.zxing::Array", ptr %5, i32 0, i32 1
  %7 = load i32, ptr %4, align 4, !tbaa !21
  %8 = sext i32 %7 to i64
  %9 = call noundef nonnull align 4 dereferenceable(4) ptr @_ZNSt6vectorIiSaIiEEixEm(ptr noundef nonnull align 8 dereferenceable(24) %6, i64 noundef %8) #12
  ret ptr %9
}

; Function Attrs: mustprogress uwtable
define linkonce_odr hidden noundef nonnull align 1 dereferenceable(1) ptr @_ZN5zxing8ArrayRefIhEixEi(ptr noundef nonnull align 8 dereferenceable(24) %0, i32 noundef %1) #0 comdat align 2 {
  %3 = alloca ptr, align 8
  %4 = alloca i32, align 4
  store ptr %0, ptr %3, align 8, !tbaa !117
  store i32 %1, ptr %4, align 4, !tbaa !21
  %5 = load ptr, ptr %3, align 8
  %6 = getelementptr inbounds nuw %"class.zxing::ArrayRef.18", ptr %5, i32 0, i32 1
  %7 = load ptr, ptr %6, align 8, !tbaa !119
  %8 = load i32, ptr %4, align 4, !tbaa !21
  %9 = call noundef nonnull align 1 dereferenceable(1) ptr @_ZN5zxing5ArrayIhEixEi(ptr noundef nonnull align 8 dereferenceable(40) %7, i32 noundef %8)
  ret ptr %9
}

; Function Attrs: mustprogress uwtable
define linkonce_odr hidden noundef nonnull align 4 dereferenceable(4) ptr @_ZN5zxing8ArrayRefIiEixEi(ptr noundef nonnull align 8 dereferenceable(24) %0, i32 noundef %1) #0 comdat align 2 {
  %3 = alloca ptr, align 8
  %4 = alloca i32, align 4
  store ptr %0, ptr %3, align 8, !tbaa !40
  store i32 %1, ptr %4, align 4, !tbaa !21
  %5 = load ptr, ptr %3, align 8
  %6 = getelementptr inbounds nuw %"class.zxing::ArrayRef.1", ptr %5, i32 0, i32 1
  %7 = load ptr, ptr %6, align 8, !tbaa !42
  %8 = load i32, ptr %4, align 4, !tbaa !21
  %9 = call noundef nonnull align 4 dereferenceable(4) ptr @_ZN5zxing5ArrayIiEixEi(ptr noundef nonnull align 8 dereferenceable(40) %7, i32 noundef %8)
  ret ptr %9
}

; Function Attrs: mustprogress uwtable
define linkonce_odr hidden void @_ZN5zxing9BitMatrix3setEii(ptr noundef nonnull align 8 dereferenceable(346) %0, i32 noundef %1, i32 noundef %2) #0 comdat align 2 {
  %4 = alloca ptr, align 8
  %5 = alloca i32, align 4
  %6 = alloca i32, align 4
  store ptr %0, ptr %4, align 8, !tbaa !83
  store i32 %1, ptr %5, align 4, !tbaa !21
  store i32 %2, ptr %6, align 4, !tbaa !21
  %7 = load ptr, ptr %4, align 8
  %8 = getelementptr inbounds nuw %"class.zxing::BitMatrix", ptr %7, i32 0, i32 14
  %9 = getelementptr inbounds nuw %"class.zxing::BitMatrix", ptr %7, i32 0, i32 15
  %10 = load i32, ptr %6, align 4, !tbaa !21
  %11 = call noundef nonnull align 4 dereferenceable(4) ptr @_ZN5zxing8ArrayRefIiEixEi(ptr noundef nonnull align 8 dereferenceable(24) %9, i32 noundef %10)
  %12 = load i32, ptr %11, align 4, !tbaa !21
  %13 = load i32, ptr %5, align 4, !tbaa !21
  %14 = add nsw i32 %12, %13
  %15 = call noundef nonnull align 1 dereferenceable(1) ptr @_ZN5zxing8ArrayRefIhEixEi(ptr noundef nonnull align 8 dereferenceable(24) %8, i32 noundef %14)
  store i8 1, ptr %15, align 1, !tbaa !51
  ret void
}

; Function Attrs: mustprogress nounwind uwtable
define linkonce_odr hidden noundef ptr @_ZNK5zxing3RefINS_9BitMatrixEEptEv(ptr noundef nonnull align 8 dereferenceable(8) %0) #2 comdat align 2 {
  %2 = alloca ptr, align 8
  store ptr %0, ptr %2, align 8, !tbaa !80
  %3 = load ptr, ptr %2, align 8
  %4 = getelementptr inbounds nuw %"class.zxing::Ref.0", ptr %3, i32 0, i32 0
  %5 = load ptr, ptr %4, align 8, !tbaa !82
  ret ptr %5
}

; Function Attrs: mustprogress nounwind uwtable
define linkonce_odr hidden noundef ptr @_ZNK5zxing3RefINS_10ByteMatrixEEptEv(ptr noundef nonnull align 8 dereferenceable(8) %0) #2 comdat align 2 {
  %2 = alloca ptr, align 8
  store ptr %0, ptr %2, align 8, !tbaa !36
  %3 = load ptr, ptr %2, align 8
  %4 = getelementptr inbounds nuw %"class.zxing::Ref.2", ptr %3, i32 0, i32 0
  %5 = load ptr, ptr %4, align 8, !tbaa !39
  ret ptr %5
}

; Function Attrs: mustprogress uwtable
define hidden void @_ZN5zxing15HybridBinarizer23thresholdIrregularBlockERNS_3RefINS_10ByteMatrixEEEiiiiiRKNS1_INS_9BitMatrixEEERNS_12ErrorHandlerE(ptr noundef nonnull align 8 dereferenceable(228) %0, ptr noundef nonnull align 8 dereferenceable(8) %1, i32 noundef %2, i32 noundef %3, i32 noundef %4, i32 noundef %5, i32 noundef %6, ptr noundef nonnull align 8 dereferenceable(8) %7, ptr noundef nonnull align 8 dereferenceable(48) %8) #0 align 2 {
  %10 = alloca ptr, align 8
  %11 = alloca ptr, align 8
  %12 = alloca i32, align 4
  %13 = alloca i32, align 4
  %14 = alloca i32, align 4
  %15 = alloca i32, align 4
  %16 = alloca i32, align 4
  %17 = alloca ptr, align 8
  %18 = alloca ptr, align 8
  %19 = alloca i32, align 4
  %20 = alloca i32, align 4
  %21 = alloca ptr, align 8
  %22 = alloca i32, align 4
  %23 = alloca i32, align 4
  store ptr %0, ptr %10, align 8, !tbaa !3
  store ptr %1, ptr %11, align 8, !tbaa !36
  store i32 %2, ptr %12, align 4, !tbaa !21
  store i32 %3, ptr %13, align 4, !tbaa !21
  store i32 %4, ptr %14, align 4, !tbaa !21
  store i32 %5, ptr %15, align 4, !tbaa !21
  store i32 %6, ptr %16, align 4, !tbaa !21
  store ptr %7, ptr %17, align 8, !tbaa !80
  store ptr %8, ptr %18, align 8, !tbaa !78
  call void @llvm.lifetime.start.p0(i64 4, ptr %19) #12
  store i32 0, ptr %19, align 4, !tbaa !21
  br label %24

24:                                               ; preds = %79, %9
  %25 = load i32, ptr %19, align 4, !tbaa !21
  %26 = load i32, ptr %15, align 4, !tbaa !21
  %27 = icmp slt i32 %25, %26
  br i1 %27, label %29, label %28

28:                                               ; preds = %24
  store i32 2, ptr %20, align 4
  br label %82

29:                                               ; preds = %24
  call void @llvm.lifetime.start.p0(i64 8, ptr %21) #12
  %30 = load ptr, ptr %11, align 8, !tbaa !36
  %31 = call noundef ptr @_ZNK5zxing3RefINS_10ByteMatrixEEptEv(ptr noundef nonnull align 8 dereferenceable(8) %30)
  %32 = load i32, ptr %13, align 4, !tbaa !21
  %33 = load i32, ptr %19, align 4, !tbaa !21
  %34 = add nsw i32 %32, %33
  %35 = load ptr, ptr %18, align 8, !tbaa !78
  %36 = call noundef ptr @_ZN5zxing10ByteMatrix10getByteRowEiRNS_12ErrorHandlerE(ptr noundef nonnull align 8 dereferenceable(40) %31, i32 noundef %34, ptr noundef nonnull align 8 dereferenceable(48) %35)
  store ptr %36, ptr %21, align 8, !tbaa !50
  %37 = load ptr, ptr %18, align 8, !tbaa !78
  %38 = load ptr, ptr %37, align 8, !tbaa !10
  %39 = getelementptr inbounds ptr, ptr %38, i64 2
  %40 = load ptr, ptr %39, align 8
  %41 = call noundef i32 %40(ptr noundef nonnull align 8 dereferenceable(48) %37)
  %42 = icmp ne i32 %41, 0
  br i1 %42, label %43, label %44

43:                                               ; preds = %29
  store i32 1, ptr %20, align 4
  br label %76

44:                                               ; preds = %29
  %45 = load ptr, ptr %21, align 8, !tbaa !50
  %46 = load i32, ptr %12, align 4, !tbaa !21
  %47 = sext i32 %46 to i64
  %48 = getelementptr inbounds i8, ptr %45, i64 %47
  store ptr %48, ptr %21, align 8, !tbaa !50
  call void @llvm.lifetime.start.p0(i64 4, ptr %22) #12
  store i32 0, ptr %22, align 4, !tbaa !21
  br label %49

49:                                               ; preds = %72, %44
  %50 = load i32, ptr %22, align 4, !tbaa !21
  %51 = load i32, ptr %14, align 4, !tbaa !21
  %52 = icmp slt i32 %50, %51
  br i1 %52, label %54, label %53

53:                                               ; preds = %49
  store i32 5, ptr %20, align 4
  call void @llvm.lifetime.end.p0(i64 4, ptr %22) #12
  br label %75

54:                                               ; preds = %49
  call void @llvm.lifetime.start.p0(i64 4, ptr %23) #12
  %55 = load ptr, ptr %21, align 8, !tbaa !50
  %56 = getelementptr inbounds nuw i8, ptr %55, i32 1
  store ptr %56, ptr %21, align 8, !tbaa !50
  %57 = load i8, ptr %55, align 1, !tbaa !51
  %58 = zext i8 %57 to i32
  store i32 %58, ptr %23, align 4, !tbaa !21
  %59 = load i32, ptr %23, align 4, !tbaa !21
  %60 = load i32, ptr %16, align 4, !tbaa !21
  %61 = icmp sle i32 %59, %60
  br i1 %61, label %62, label %71

62:                                               ; preds = %54
  %63 = load ptr, ptr %17, align 8, !tbaa !80
  %64 = call noundef ptr @_ZNK5zxing3RefINS_9BitMatrixEEptEv(ptr noundef nonnull align 8 dereferenceable(8) %63)
  %65 = load i32, ptr %12, align 4, !tbaa !21
  %66 = load i32, ptr %22, align 4, !tbaa !21
  %67 = add nsw i32 %65, %66
  %68 = load i32, ptr %13, align 4, !tbaa !21
  %69 = load i32, ptr %19, align 4, !tbaa !21
  %70 = add nsw i32 %68, %69
  call void @_ZN5zxing9BitMatrix3setEii(ptr noundef nonnull align 8 dereferenceable(346) %64, i32 noundef %67, i32 noundef %70)
  br label %71

71:                                               ; preds = %62, %54
  call void @llvm.lifetime.end.p0(i64 4, ptr %23) #12
  br label %72

72:                                               ; preds = %71
  %73 = load i32, ptr %22, align 4, !tbaa !21
  %74 = add nsw i32 %73, 1
  store i32 %74, ptr %22, align 4, !tbaa !21
  br label %49, !llvm.loop !115

75:                                               ; preds = %53
  store i32 0, ptr %20, align 4
  br label %76

76:                                               ; preds = %75, %43
  call void @llvm.lifetime.end.p0(i64 8, ptr %21) #12
  %77 = load i32, ptr %20, align 4
  switch i32 %77, label %82 [
    i32 0, label %78
  ]

78:                                               ; preds = %76
  br label %79

79:                                               ; preds = %78
  %80 = load i32, ptr %19, align 4, !tbaa !21
  %81 = add nsw i32 %80, 1
  store i32 %81, ptr %19, align 4, !tbaa !21
  br label %24, !llvm.loop !116

82:                                               ; preds = %76, %28
  call void @llvm.lifetime.end.p0(i64 4, ptr %19) #12
  %83 = load i32, ptr %20, align 4
  switch i32 %83, label %85 [
    i32 2, label %84
    i32 1, label %84
  ]

84:                                               ; preds = %82, %82
  ret void

85:                                               ; preds = %82
  unreachable
}