; Function Attrs: mustprogress uwtable
define hidden void @_ZN5zxing15HybridBinarizer23thresholdIrregularBlockERNS_3RefINS_10ByteMatrixEEEiiiiiRKNS1_INS_9BitMatrixEEERNS_12ErrorHandlerE(ptr noundef nonnull readnone align 8 captures(none) dereferenceable(228) %0, ptr noundef nonnull readonly align 8 captures(none) dereferenceable(8) %1, i32 noundef %2, i32 noundef %3, i32 noundef %4, i32 noundef %5, i32 noundef %6, ptr noundef nonnull readonly align 8 captures(none) dereferenceable(8) %7, ptr noundef nonnull align 8 dereferenceable(48) %8) local_unnamed_addr #0 align 2 {
  %10 = icmp sgt i32 %5, 0
  br i1 %10, label %.lr.ph29, label %.critedge

.lr.ph29:                                         ; preds = %9
  %11 = sext i32 %2 to i64
  %12 = icmp sgt i32 %4, 0
  br i1 %12, label %.lr.ph29.split.us.preheader, label %.lr.ph29.split

.lr.ph29.split.us.preheader:                      ; preds = %.lr.ph29
  %13 = sext i32 %3 to i64
  %wide.trip.count = zext nneg i32 %5 to i64
  br label %.lr.ph29.split.us

.lr.ph29.split.us:                                ; preds = %.lr.ph29.split.us.preheader, %._crit_edge.us
  %indvars.iv = phi i64 [ 0, %.lr.ph29.split.us.preheader ], [ %indvars.iv.next, %._crit_edge.us ]
  %14 = load ptr, ptr %1, align 8, !tbaa !14
  %15 = add nsw i64 %indvars.iv, %13
  %16 = trunc nsw i64 %15 to i32
  %17 = tail call noundef ptr @_ZN5zxing10ByteMatrix10getByteRowEiRNS_12ErrorHandlerE(ptr noundef nonnull align 8 dereferenceable(40) %14, i32 noundef %16, ptr noundef nonnull align 8 dereferenceable(48) %8)
  %18 = load ptr, ptr %8, align 8, !tbaa !12
  %19 = getelementptr inbounds nuw i8, ptr %18, i64 16
  %20 = load ptr, ptr %19, align 8
  %21 = tail call noundef i32 %20(ptr noundef nonnull align 8 dereferenceable(48) %8)
  %.not.us = icmp eq i32 %21, 0
  br i1 %.not.us, label %.lr.ph.us, label %.critedge

.lr.ph.us:                                        ; preds = %.lr.ph29.split.us
  %22 = getelementptr inbounds i8, ptr %17, i64 %11
  br label %23

23:                                               ; preds = %.lr.ph.us, %43
  %.02126.us = phi i32 [ 0, %.lr.ph.us ], [ %44, %43 ]
  %.02225.us = phi ptr [ %22, %.lr.ph.us ], [ %24, %43 ]
  %24 = getelementptr inbounds nuw i8, ptr %.02225.us, i64 1
  %25 = load i8, ptr %.02225.us, align 1, !tbaa !50
  %26 = zext i8 %25 to i32
  %.not24.us = icmp slt i32 %6, %26
  br i1 %.not24.us, label %43, label %27

27:                                               ; preds = %23
  %28 = load ptr, ptr %7, align 8, !tbaa !70
  %29 = add nsw i32 %.02126.us, %2
  %30 = getelementptr inbounds nuw i8, ptr %28, i64 336
  %31 = load ptr, ptr %30, align 8, !tbaa !17
  %32 = getelementptr inbounds nuw i8, ptr %31, i64 16
  %33 = load ptr, ptr %32, align 8, !tbaa !57
  %34 = getelementptr inbounds nuw i32, ptr %33, i64 %15
  %35 = load i32, ptr %34, align 4, !tbaa !60
  %36 = add nsw i32 %29, %35
  %37 = getelementptr inbounds nuw i8, ptr %28, i64 312
  %38 = load ptr, ptr %37, align 8, !tbaa !97
  %39 = getelementptr inbounds nuw i8, ptr %38, i64 16
  %40 = sext i32 %36 to i64
  %41 = load ptr, ptr %39, align 8, !tbaa !98
  %42 = getelementptr inbounds nuw i8, ptr %41, i64 %40
  store i8 1, ptr %42, align 1, !tbaa !50
  br label %43

43:                                               ; preds = %27, %23
  %44 = add nuw nsw i32 %.02126.us, 1
  %exitcond.not = icmp eq i32 %44, %4
  br i1 %exitcond.not, label %._crit_edge.us, label %23, !llvm.loop !100

._crit_edge.us:                                   ; preds = %43
  %indvars.iv.next = add nuw nsw i64 %indvars.iv, 1
  %exitcond34.not = icmp eq i64 %indvars.iv.next, %wide.trip.count
  br i1 %exitcond34.not, label %.critedge, label %.lr.ph29.split.us, !llvm.loop !101

.lr.ph29.split:                                   ; preds = %.lr.ph29, %.lr.ph29.split
  %.027 = phi i32 [ %52, %.lr.ph29.split ], [ 0, %.lr.ph29 ]
  %45 = load ptr, ptr %1, align 8, !tbaa !14
  %46 = add nsw i32 %.027, %3
  %47 = tail call noundef ptr @_ZN5zxing10ByteMatrix10getByteRowEiRNS_12ErrorHandlerE(ptr noundef nonnull align 8 dereferenceable(40) %45, i32 noundef %46, ptr noundef nonnull align 8 dereferenceable(48) %8)
  %48 = load ptr, ptr %8, align 8, !tbaa !12
  %49 = getelementptr inbounds nuw i8, ptr %48, i64 16
  %50 = load ptr, ptr %49, align 8
  %51 = tail call noundef i32 %50(ptr noundef nonnull align 8 dereferenceable(48) %8)
  %.not = icmp eq i32 %51, 0
  %52 = add nuw nsw i32 %.027, 1
  %53 = icmp slt i32 %52, %5
  %or.cond = select i1 %.not, i1 %53, i1 false
  br i1 %or.cond, label %.lr.ph29.split, label %.critedge, !llvm.loop !101

.critedge:                                        ; preds = %.lr.ph29.split, %._crit_edge.us, %.lr.ph29.split.us, %9
  ret void
}